	.file	"mstore.c"
	.intel_syntax noprefix
	.text
.Ltext0:
	.cfi_sections	.debug_frame
	.globl	multstore
	.def	multstore;	.scl	2;	.type	32;	.endef
	.seh_proc	multstore
multstore:
.LVL0:
.LFB0:
	.file 1 "mstore.c"
	.loc 1 4 1 view -0
	.cfi_startproc
	.loc 1 4 1 is_stmt 0 view .LVU1
	push	rbx
	.seh_pushreg	rbx
	.cfi_def_cfa_offset 16
	.cfi_offset 3, -16
	sub	rsp, 32
	.seh_stackalloc	32
	.cfi_def_cfa_offset 48
	.seh_endprologue
	mov	rbx, r8
	.loc 1 5 2 is_stmt 1 view .LVU2
	.loc 1 5 11 is_stmt 0 view .LVU3
	call	mult2
.LVL1:
	.loc 1 6 2 is_stmt 1 view .LVU4
	.loc 1 6 8 is_stmt 0 view .LVU5
	mov	DWORD PTR [rbx], eax
	.loc 1 7 1 view .LVU6
	add	rsp, 32
	.cfi_def_cfa_offset 16
	pop	rbx
	.cfi_restore 3
	.cfi_def_cfa_offset 8
.LVL2:
	.loc 1 7 1 view .LVU7
	ret
	.cfi_endproc
.LFE0:
	.seh_endproc
.Letext0: